; Function Attrs: mustprogress nofree norecurse nosync nounwind willreturn memory(argmem: write) uwtable
define hidden noundef zeroext i1 @_ZN10duckdb_re212re2_internal5ParseINS_11StringPieceEEEbPKcmPT_(ptr noundef %0, i64 noundef %1, ptr noundef writeonly captures(address_is_null) %2) local_unnamed_addr #1 {
  %4 = icmp eq ptr %2, null
  br i1 %4, label %6, label %5

5:                                                ; preds = %3
  store ptr %0, ptr %2, align 8, !tbaa !175
  %.sroa.4.0..sroa_idx = getelementptr inbounds nuw i8, ptr %2, i64 8
  store i64 %1, ptr %.sroa.4.0..sroa_idx, align 8, !tbaa !37
  br label %6

6:                                                ; preds = %3, %5
  ret i1 true
}